ARM GAS  /var/folders/45/xsb7v22s5xd97d7k7sy8bf_00000gn/T//ccq7JHcw.s 			page 1


   1              		.cpu cortex-m7
   2              		.eabi_attribute 28, 1
   3              		.eabi_attribute 20, 1
   4              		.eabi_attribute 21, 1
   5              		.eabi_attribute 23, 3
   6              		.eabi_attribute 24, 1
   7              		.eabi_attribute 25, 1
   8              		.eabi_attribute 26, 1
   9              		.eabi_attribute 30, 2
  10              		.eabi_attribute 34, 1
  11              		.eabi_attribute 18, 4
  12              		.file	"MyOscillator.cpp"
  13              		.text
  14              		.section	.text._ZN5daisy10DaisyFieldD2Ev,"axG",%progbits,_ZN5daisy10DaisyFieldD5Ev,comdat
  15              		.align	1
  16              		.p2align 2,,3
  17              		.weak	_ZN5daisy10DaisyFieldD2Ev
  18              		.arch armv7e-m
  19              		.syntax unified
  20              		.thumb
  21              		.thumb_func
  22              		.fpu fpv5-d16
  24              	_ZN5daisy10DaisyFieldD2Ev:
  25              		@ args = 0, pretend = 0, frame = 0
  26              		@ frame_needed = 0, uses_anonymous_args = 0
  27              		@ link register save eliminated.
  28 0000 7047     		bx	lr
  30              		.weak	_ZN5daisy10DaisyFieldD1Ev
  31              		.thumb_set _ZN5daisy10DaisyFieldD1Ev,_ZN5daisy10DaisyFieldD2Ev
  32 0002 00BF     		.section	.text._ZN7daisysp10OscillatorD2Ev,"axG",%progbits,_ZN7daisysp10OscillatorD5Ev,comdat
  33              		.align	1
  34              		.p2align 2,,3
  35              		.weak	_ZN7daisysp10OscillatorD2Ev
  36              		.syntax unified
  37              		.thumb
  38              		.thumb_func
  39              		.fpu fpv5-d16
  41              	_ZN7daisysp10OscillatorD2Ev:
  42              		@ args = 0, pretend = 0, frame = 0
  43              		@ frame_needed = 0, uses_anonymous_args = 0
  44              		@ link register save eliminated.
  45 0000 7047     		bx	lr
  47              		.weak	_ZN7daisysp10OscillatorD1Ev
  48              		.thumb_set _ZN7daisysp10OscillatorD1Ev,_ZN7daisysp10OscillatorD2Ev
  49 0002 00BF     		.section	.text._ZN5daisy16LedDriverPca9685ILi2ELb1EE14TxCpltCallbackEPvNS_9I2CHandle6ResultE,"axG"
  50              		.align	1
  51              		.p2align 2,,3
  52              		.weak	_ZN5daisy16LedDriverPca9685ILi2ELb1EE14TxCpltCallbackEPvNS_9I2CHandle6ResultE
  53              		.syntax unified
  54              		.thumb
  55              		.thumb_func
  56              		.fpu fpv5-d16
  58              	_ZN5daisy16LedDriverPca9685ILi2ELb1EE14TxCpltCallbackEPvNS_9I2CHandle6ResultE:
  59              		@ args = 0, pretend = 0, frame = 0
  60              		@ frame_needed = 0, uses_anonymous_args = 0
  61 0000 30B5     		push	{r4, r5, lr}
  62 0002 027D     		ldrb	r2, [r0, #20]	@ zero_extendqisi2
ARM GAS  /var/folders/45/xsb7v22s5xd97d7k7sy8bf_00000gn/T//ccq7JHcw.s 			page 2


  63 0004 83B0     		sub	sp, sp, #12
  64 0006 0446     		mov	r4, r0
  65 0008 0132     		adds	r2, r2, #1
  66 000a 52B2     		sxtb	r2, r2
  67 000c 012A     		cmp	r2, #1
  68 000e 0275     		strb	r2, [r0, #20]
  69 0010 03DD     		ble	.L5
  70 0012 FF23     		movs	r3, #255
  71 0014 0375     		strb	r3, [r0, #20]
  72              	.L4:
  73 0016 03B0     		add	sp, sp, #12
  74              		@ sp needed
  75 0018 30BD     		pop	{r4, r5, pc}
  76              	.L5:
  77 001a 8568     		ldr	r5, [r0, #8]
  78 001c 8118     		adds	r1, r0, r2
  79 001e 02EB8212 		add	r2, r2, r2, lsl #6
  80 0022 4123     		movs	r3, #65
  81 0024 097B     		ldrb	r1, [r1, #12]	@ zero_extendqisi2
  82 0026 2A44     		add	r2, r2, r5
  83 0028 094D     		ldr	r5, .L11
  84 002a 41F04001 		orr	r1, r1, #64
  85 002e 0190     		str	r0, [sp, #4]
  86 0030 0095     		str	r5, [sp]
  87 0032 FFF7FEFF 		bl	_ZN5daisy9I2CHandle11TransmitDmaEtPhtPFvPvNS0_6ResultEES2_
  88 0036 0028     		cmp	r0, #0
  89 0038 EDD0     		beq	.L4
  90 003a 2046     		mov	r0, r4
  91 003c FFF7FEFF 		bl	_ZNK5daisy9I2CHandle9GetConfigEv
  92 0040 0146     		mov	r1, r0
  93 0042 2046     		mov	r0, r4
  94 0044 03B0     		add	sp, sp, #12
  95              		@ sp needed
  96 0046 BDE83040 		pop	{r4, r5, lr}
  97 004a FFF7FEBF 		b	_ZN5daisy9I2CHandle4InitERKNS0_6ConfigE
  98              	.L12:
  99 004e 00BF     		.align	2
 100              	.L11:
 101 0050 00000000 		.word	_ZN5daisy16LedDriverPca9685ILi2ELb1EE14TxCpltCallbackEPvNS_9I2CHandle6ResultE
 103              		.section	.text._ZL8callbackPfS_j,"ax",%progbits
 104              		.align	1
 105              		.p2align 2,,3
 106              		.syntax unified
 107              		.thumb
 108              		.thumb_func
 109              		.fpu fpv5-d16
 111              	_ZL8callbackPfS_j:
 112              		@ args = 0, pretend = 0, frame = 0
 113              		@ frame_needed = 0, uses_anonymous_args = 0
 114 0000 2DE9F041 		push	{r4, r5, r6, r7, r8, lr}
 115 0004 4848     		ldr	r0, .L25
 116 0006 0E46     		mov	r6, r1
 117 0008 9046     		mov	r8, r2
 118 000a 0025     		movs	r5, #0
 119 000c 474F     		ldr	r7, .L25+4
 120 000e 2DED028B 		vpush.64	{d8}
 121 0012 FFF7FEFF 		bl	_ZN5daisy13AnalogControl7ProcessEv
ARM GAS  /var/folders/45/xsb7v22s5xd97d7k7sy8bf_00000gn/T//ccq7JHcw.s 			page 3


 122 0016 4648     		ldr	r0, .L25+8
 123 0018 FFF7FEFF 		bl	_ZN5daisy13AnalogControl7ProcessEv
 124 001c 4548     		ldr	r0, .L25+12
 125 001e FFF7FEFF 		bl	_ZN5daisy13AnalogControl7ProcessEv
 126 0022 4548     		ldr	r0, .L25+16
 127 0024 FFF7FEFF 		bl	_ZN5daisy13AnalogControl7ProcessEv
 128 0028 4448     		ldr	r0, .L25+20
 129 002a FFF7FEFF 		bl	_ZN5daisy13AnalogControl7ProcessEv
 130 002e 4448     		ldr	r0, .L25+24
 131 0030 FFF7FEFF 		bl	_ZN5daisy13AnalogControl7ProcessEv
 132 0034 4348     		ldr	r0, .L25+28
 133 0036 FFF7FEFF 		bl	_ZN5daisy13AnalogControl7ProcessEv
 134 003a 4348     		ldr	r0, .L25+32
 135 003c FFF7FEFF 		bl	_ZN5daisy13AnalogControl7ProcessEv
 136 0040 4248     		ldr	r0, .L25+36
 137 0042 FFF7FEFF 		bl	_ZN5daisy13AnalogControl7ProcessEv
 138 0046 4248     		ldr	r0, .L25+40
 139 0048 FFF7FEFF 		bl	_ZN5daisy13AnalogControl7ProcessEv
 140 004c 4148     		ldr	r0, .L25+44
 141 004e FFF7FEFF 		bl	_ZN5daisy13AnalogControl7ProcessEv
 142 0052 4148     		ldr	r0, .L25+48
 143 0054 FFF7FEFF 		bl	_ZN5daisy13AnalogControl7ProcessEv
 144 0058 4048     		ldr	r0, .L25+52
 145 005a FFF7FEFF 		bl	_ZN5daisy6Switch8DebounceEv
 146 005e 4048     		ldr	r0, .L25+56
 147 0060 FFF7FEFF 		bl	_ZN5daisy6Switch8DebounceEv
 148 0064 3F48     		ldr	r0, .L25+60
 149 0066 FFF7FEFF 		bl	dsy_sr_4021_update
 150 006a 2B46     		mov	r3, r5
 151 006c 03E0     		b	.L14
 152              	.L16:
 153 006e 072D     		cmp	r5, #7
 154 0070 8CBF     		ite	hi
 155 0072 0823     		movhi	r3, #8
 156 0074 0023     		movls	r3, #0
 157              	.L14:
 158 0076 E9B2     		uxtb	r1, r5
 159 0078 3A48     		ldr	r0, .L25+60
 160 007a 0135     		adds	r5, r5, #1
 161 007c CC43     		mvns	r4, r1
 162 007e 04F00704 		and	r4, r4, #7
 163 0082 1C44     		add	r4, r4, r3
 164 0084 FFF7FEFF 		bl	dsy_sr_4021_state
 165 0088 102D     		cmp	r5, #16
 166 008a 07EB0403 		add	r3, r7, r4
 167 008e 93F82424 		ldrb	r2, [r3, #1060]	@ zero_extendqisi2
 168 0092 40EA4200 		orr	r0, r0, r2, lsl #1
 169 0096 83F82404 		strb	r0, [r3, #1060]
 170 009a E8D1     		bne	.L16
 171 009c 3248     		ldr	r0, .L25+64
 172 009e FFF7FEFF 		bl	_ZN5daisy6GateIn4TrigEv
 173 00a2 324B     		ldr	r3, .L25+68
 174 00a4 D7F8E012 		ldr	r1, [r7, #736]	@ float
 175 00a8 D7F8FC22 		ldr	r2, [r7, #764]	@ float
 176 00ac 1960     		str	r1, [r3]	@ float
 177 00ae 5A60     		str	r2, [r3, #4]	@ float
 178 00b0 D7F81813 		ldr	r1, [r7, #792]	@ float
ARM GAS  /var/folders/45/xsb7v22s5xd97d7k7sy8bf_00000gn/T//ccq7JHcw.s 			page 4


 179 00b4 D7F83423 		ldr	r2, [r7, #820]	@ float
 180 00b8 9960     		str	r1, [r3, #8]	@ float
 181 00ba DA60     		str	r2, [r3, #12]	@ float
 182 00bc D7F85013 		ldr	r1, [r7, #848]	@ float
 183 00c0 D7F86C23 		ldr	r2, [r7, #876]	@ float
 184 00c4 1961     		str	r1, [r3, #16]	@ float
 185 00c6 5A61     		str	r2, [r3, #20]	@ float
 186 00c8 D7F88813 		ldr	r1, [r7, #904]	@ float
 187 00cc D7F8A423 		ldr	r2, [r7, #932]	@ float
 188 00d0 87F83804 		strb	r0, [r7, #1080]
 189 00d4 9961     		str	r1, [r3, #24]	@ float
 190 00d6 DA61     		str	r2, [r3, #28]	@ float
 191 00d8 B8F1000F 		cmp	r8, #0
 192 00dc 20D0     		beq	.L13
 193 00de 08F1FF38 		add	r8, r8, #-1
 194 00e2 0024     		movs	r4, #0
 195 00e4 224D     		ldr	r5, .L25+72
 196 00e6 28F00108 		bic	r8, r8, #1
 197              	.L18:
 198 00ea 2148     		ldr	r0, .L25+72
 199 00ec 0836     		adds	r6, r6, #8
 200 00ee FFF7FEFF 		bl	_ZN7daisysp10Oscillator7ProcessEv
 201 00f2 D7EDC67A 		vldr.32	s15, [r7, #792]
 202 00f6 9FED1F7A 		vldr.32	s14, .L25+76
 203 00fa B0EE408A 		vmov.f32	s16, s0
 204 00fe 1C48     		ldr	r0, .L25+72
 205 0100 27EE870A 		vmul.f32	s0, s15, s14
 206 0104 85ED020A 		vstr.32	s0, [r5, #8]
 207 0108 FFF7FEFF 		bl	_ZN7daisysp10Oscillator12CalcPhaseIncEf
 208 010c 4445     		cmp	r4, r8
 209 010e 85ED060A 		vstr.32	s0, [r5, #24]
 210 0112 04F10204 		add	r4, r4, #2
 211 0116 06ED028A 		vstr.32	s16, [r6, #-8]
 212 011a 06ED018A 		vstr.32	s16, [r6, #-4]
 213 011e E4D1     		bne	.L18
 214              	.L13:
 215 0120 BDEC028B 		vldm	sp!, {d8}
 216 0124 BDE8F081 		pop	{r4, r5, r6, r7, r8, pc}
 217              	.L26:
 218              		.align	2
 219              	.L25:
 220 0128 D4020000 		.word	.LANCHOR0+724
 221 012c 00000000 		.word	.LANCHOR0
 222 0130 F0020000 		.word	.LANCHOR0+752
 223 0134 0C030000 		.word	.LANCHOR0+780
 224 0138 28030000 		.word	.LANCHOR0+808
 225 013c 44030000 		.word	.LANCHOR0+836
 226 0140 60030000 		.word	.LANCHOR0+864
 227 0144 7C030000 		.word	.LANCHOR0+892
 228 0148 98030000 		.word	.LANCHOR0+920
 229 014c B4030000 		.word	.LANCHOR0+948
 230 0150 D0030000 		.word	.LANCHOR0+976
 231 0154 EC030000 		.word	.LANCHOR0+1004
 232 0158 08040000 		.word	.LANCHOR0+1032
 233 015c 88020000 		.word	.LANCHOR0+648
 234 0160 98020000 		.word	.LANCHOR0+664
 235 0164 A8020000 		.word	.LANCHOR0+680
ARM GAS  /var/folders/45/xsb7v22s5xd97d7k7sy8bf_00000gn/T//ccq7JHcw.s 			page 5


 236 0168 5D000000 		.word	.LANCHOR0+93
 237 016c 00000000 		.word	.LANCHOR1
 238 0170 00000000 		.word	.LANCHOR2
 239 0174 00007A44 		.word	1148846080
 241              		.section	.text._Z10UpdateLedsPf,"ax",%progbits
 242              		.align	1
 243              		.p2align 2,,3
 244              		.global	_Z10UpdateLedsPf
 245              		.syntax unified
 246              		.thumb
 247              		.thumb_func
 248              		.fpu fpv5-d16
 250              	_Z10UpdateLedsPf:
 251              		@ args = 0, pretend = 0, frame = 96
 252              		@ frame_needed = 0, uses_anonymous_args = 0
 253 0000 F0B5     		push	{r4, r5, r6, r7, lr}
 254 0002 5C4E     		ldr	r6, .L46
 255 0004 9BB0     		sub	sp, sp, #108
 256 0006 0546     		mov	r5, r0
 257 0008 5B4C     		ldr	r4, .L46+4
 258 000a 05AF     		add	r7, sp, #20
 259 000c 0DF1340C 		add	ip, sp, #52
 260 0010 0FCE     		ldmia	r6!, {r0, r1, r2, r3}
 261 0012 0FC7     		stmia	r7!, {r0, r1, r2, r3}
 262 0014 96E80F00 		ldm	r6, {r0, r1, r2, r3}
 263 0018 1036     		adds	r6, r6, #16
 264 001a 87E80F00 		stm	r7, {r0, r1, r2, r3}
 265 001e 0FCE     		ldmia	r6!, {r0, r1, r2, r3}
 266 0020 ACE80F00 		stmia	ip!, {r0, r1, r2, r3}
 267 0024 0FCE     		ldmia	r6!, {r0, r1, r2, r3}
 268 0026 ACE80F00 		stmia	ip!, {r0, r1, r2, r3}
 269 002a 0FCE     		ldmia	r6!, {r0, r1, r2, r3}
 270 002c 04AF     		add	r7, sp, #16
 271 002e D6F800E0 		ldr	lr, [r6]
 272 0032 05F12006 		add	r6, r5, #32
 273 0036 ACE80F00 		stmia	ip!, {r0, r1, r2, r3}
 274 003a A26E     		ldr	r2, [r4, #104]
 275 003c CCF800E0 		str	lr, [ip]
 276              	.L30:
 277 0040 F5EC017A 		vldmia.32	r5!, {s15}
 278 0044 0021     		movs	r1, #0
 279 0046 9FED4D7A 		vldr.32	s14, .L46+8
 280 004a 57F8040F 		ldr	r0, [r7, #4]!
 281 004e 67EE877A 		vmul.f32	s15, s15, s14
 282 0052 F5EEC07A 		vcmpe.f32	s15, #0
 283 0056 F1EE10FA 		vmrs	APSR_nzcv, FPSCR
 284 005a 0BD4     		bmi	.L28
 285 005c F4EEC77A 		vcmpe.f32	s15, s14
 286 0060 FF21     		movs	r1, #255
 287 0062 F1EE10FA 		vmrs	APSR_nzcv, FPSCR
 288 0066 05DC     		bgt	.L28
 289 0068 FCEEE77A 		vcvt.u32.f32	s15, s15
 290 006c CDED037A 		vstr.32	s15, [sp, #12]	@ int
 291 0070 9DF80C10 		ldrb	r1, [sp, #12]	@ zero_extendqisi2
 292              	.L28:
 293 0074 C0F30713 		ubfx	r3, r0, #4, #8
 294 0078 00F00F00 		and	r0, r0, #15
ARM GAS  /var/folders/45/xsb7v22s5xd97d7k7sy8bf_00000gn/T//ccq7JHcw.s 			page 6


 295 007c 04EB4101 		add	r1, r4, r1, lsl #1
 296 0080 40F6FE7C 		movw	ip, #4094
 297 0084 03EB8313 		add	r3, r3, r3, lsl #6
 298 0088 B1F87AE0 		ldrh	lr, [r1, #122]
 299 008c 03EB8003 		add	r3, r3, r0, lsl #2
 300 0090 E645     		cmp	lr, ip
 301 0092 1344     		add	r3, r3, r2
 302 0094 B3F80110 		ldrh	r1, [r3, #1]	@ unaligned
 303 0098 C1F30B01 		ubfx	r1, r1, #0, #12
 304 009c 0EEB0100 		add	r0, lr, r1
 305 00a0 88BF     		it	hi
 306 00a2 41F48051 		orrhi	r1, r1, #4096
 307 00a6 AE42     		cmp	r6, r5
 308 00a8 C0F30B00 		ubfx	r0, r0, #0, #12
 309 00ac A3F80110 		strh	r1, [r3, #1]	@ unaligned
 310 00b0 A3F80300 		strh	r0, [r3, #3]	@ unaligned
 311 00b4 C4D1     		bne	.L30
 312 00b6 0DA8     		add	r0, sp, #52
 313 00b8 1AAF     		add	r7, sp, #104
 314              	.L32:
 315 00ba 50F8043B 		ldr	r3, [r0], #4
 316 00be 40F6FE76 		movw	r6, #4094
 317 00c2 B4F87852 		ldrh	r5, [r4, #632]
 318 00c6 C3F30711 		ubfx	r1, r3, #4, #8
 319 00ca 03F00F03 		and	r3, r3, #15
 320 00ce B542     		cmp	r5, r6
 321 00d0 01EB8111 		add	r1, r1, r1, lsl #6
 322 00d4 01EB8303 		add	r3, r1, r3, lsl #2
 323 00d8 1344     		add	r3, r3, r2
 324 00da B3F80110 		ldrh	r1, [r3, #1]	@ unaligned
 325 00de C1F30B01 		ubfx	r1, r1, #0, #12
 326 00e2 05EB010C 		add	ip, r5, r1
 327 00e6 88BF     		it	hi
 328 00e8 41F48051 		orrhi	r1, r1, #4096
 329 00ec 8742     		cmp	r7, r0
 330 00ee CCF30B0C 		ubfx	ip, ip, #0, #12
 331 00f2 A3F80110 		strh	r1, [r3, #1]	@ unaligned
 332 00f6 A3F803C0 		strh	ip, [r3, #3]	@ unaligned
 333 00fa DED1     		bne	.L32
 334 00fc 94F97830 		ldrsb	r3, [r4, #120]
 335              	.L33:
 336 0100 002B     		cmp	r3, #0
 337 0102 FDDA     		bge	.L33
 338 0104 E16E     		ldr	r1, [r4, #108]
 339 0106 0023     		movs	r3, #0
 340 0108 C4E91A12 		strd	r1, r2, [r4, #104]
 341              	.L34:
 342 010c 02EB8305 		add	r5, r2, r3, lsl #2
 343 0110 01EB8300 		add	r0, r1, r3, lsl #2
 344 0114 0133     		adds	r3, r3, #1
 345 0116 B5F80350 		ldrh	r5, [r5, #3]	@ unaligned
 346 011a 102B     		cmp	r3, #16
 347 011c A0F80350 		strh	r5, [r0, #3]	@ unaligned
 348 0120 F4D1     		bne	.L34
 349 0122 0023     		movs	r3, #0
 350              	.L35:
 351 0124 02EB8305 		add	r5, r2, r3, lsl #2
ARM GAS  /var/folders/45/xsb7v22s5xd97d7k7sy8bf_00000gn/T//ccq7JHcw.s 			page 7


 352 0128 01EB8300 		add	r0, r1, r3, lsl #2
 353 012c 0133     		adds	r3, r3, #1
 354 012e B5F84450 		ldrh	r5, [r5, #68]	@ unaligned
 355 0132 102B     		cmp	r3, #16
 356 0134 A0F84450 		strh	r5, [r0, #68]	@ unaligned
 357 0138 F4D1     		bne	.L35
 358 013a 114D     		ldr	r5, .L46+12
 359 013c 0026     		movs	r6, #0
 360 013e 114B     		ldr	r3, .L46+16
 361 0140 94F87010 		ldrb	r1, [r4, #112]	@ zero_extendqisi2
 362 0144 2846     		mov	r0, r5
 363 0146 0093     		str	r3, [sp]
 364 0148 4123     		movs	r3, #65
 365 014a 41F04001 		orr	r1, r1, #64
 366 014e 0195     		str	r5, [sp, #4]
 367 0150 84F87860 		strb	r6, [r4, #120]
 368 0154 FFF7FEFF 		bl	_ZN5daisy9I2CHandle11TransmitDmaEtPhtPFvPvNS0_6ResultEES2_
 369 0158 08B9     		cbnz	r0, .L45
 370 015a 1BB0     		add	sp, sp, #108
 371              		@ sp needed
 372 015c F0BD     		pop	{r4, r5, r6, r7, pc}
 373              	.L45:
 374 015e 2846     		mov	r0, r5
 375 0160 FFF7FEFF 		bl	_ZNK5daisy9I2CHandle9GetConfigEv
 376 0164 0146     		mov	r1, r0
 377 0166 2846     		mov	r0, r5
 378 0168 1BB0     		add	sp, sp, #108
 379              		@ sp needed
 380 016a BDE8F040 		pop	{r4, r5, r6, r7, lr}
 381 016e FFF7FEBF 		b	_ZN5daisy9I2CHandle4InitERKNS0_6ConfigE
 382              	.L47:
 383 0172 00BF     		.align	2
 384              	.L46:
 385 0174 00000000 		.word	.LANCHOR3
 386 0178 00000000 		.word	.LANCHOR0
 387 017c 00007F43 		.word	1132396544
 388 0180 64000000 		.word	.LANCHOR0+100
 389 0184 00000000 		.word	_ZN5daisy16LedDriverPca9685ILi2ELb1EE14TxCpltCallbackEPvNS_9I2CHandle6ResultE
 391              		.section	.text.startup.main,"ax",%progbits
 392              		.align	1
 393              		.p2align 2,,3
 394              		.global	main
 395              		.syntax unified
 396              		.thumb
 397              		.thumb_func
 398              		.fpu fpv5-d16
 400              	main:
 401              		@ args = 0, pretend = 0, frame = 0
 402              		@ frame_needed = 0, uses_anonymous_args = 0
 403 0000 70B5     		push	{r4, r5, r6, lr}
 404 0002 2C4C     		ldr	r4, .L51
 405 0004 4FF07C56 		mov	r6, #1056964608
 406 0008 2B4D     		ldr	r5, .L51+4
 407 000a 2046     		mov	r0, r4
 408 000c 2DED028B 		vpush.64	{d8}
 409 0010 FFF7FEFF 		bl	_ZN5daisy10DaisyField4InitEv
 410 0014 F7EE006A 		vmov.f32	s13, #1.0e+0
ARM GAS  /var/folders/45/xsb7v22s5xd97d7k7sy8bf_00000gn/T//ccq7JHcw.s 			page 8


 411 0018 D4ED9F7A 		vldr.32	s15, [r4, #636]
 412 001c 0023     		movs	r3, #0
 413 001e 9FED278A 		vldr.32	s16, .L51+8
 414 0022 2846     		mov	r0, r5
 415 0024 86EEA77A 		vdiv.f32	s14, s13, s15
 416 0028 C5ED037A 		vstr.32	s15, [r5, #12]
 417 002c 6B61     		str	r3, [r5, #20]	@ float
 418 002e 85ED028A 		vstr.32	s16, [r5, #8]
 419 0032 6E60     		str	r6, [r5, #4]	@ float
 420 0034 B0EE480A 		vmov.f32	s0, s16
 421 0038 85ED047A 		vstr.32	s14, [r5, #16]
 422 003c FFF7FEFF 		bl	_ZN7daisysp10Oscillator12CalcPhaseIncEf
 423 0040 F0EE407A 		vmov.f32	s15, s0
 424 0044 0023     		movs	r3, #0
 425 0046 2846     		mov	r0, r5
 426 0048 B0EE480A 		vmov.f32	s0, s16
 427 004c 2B70     		strb	r3, [r5]
 428 004e C5ED067A 		vstr.32	s15, [r5, #24]
 429 0052 85ED028A 		vstr.32	s16, [r5, #8]
 430 0056 FFF7FEFF 		bl	_ZN7daisysp10Oscillator12CalcPhaseIncEf
 431 005a 2046     		mov	r0, r4
 432 005c 1849     		ldr	r1, .L51+12
 433 005e 6E60     		str	r6, [r5, #4]	@ float
 434 0060 85ED060A 		vstr.32	s0, [r5, #24]
 435 0064 FFF7FEFF 		bl	_ZN5daisy10DaisyField10StartAudioEPFvPfS1_jE
 436 0068 04F14000 		add	r0, r4, #64
 437 006c FFF7FEFF 		bl	_ZN5daisy9AdcHandle5StartEv
 438              	.L49:
 439 0070 1448     		ldr	r0, .L51+16
 440 0072 FFF7FEFF 		bl	_Z10UpdateLedsPf
 441 0076 0120     		movs	r0, #1
 442 0078 FFF7FEFF 		bl	dsy_system_delay
 443 007c 9FED128A 		vldr.32	s16, .L51+20
 444 0080 94EDB87A 		vldr.32	s14, [r4, #736]
 445 0084 0020     		movs	r0, #0
 446 0086 27EE087A 		vmul.f32	s14, s14, s16
 447 008a BCEEC77A 		vcvt.u32.f32	s14, s14
 448 008e 17EE103A 		vmov	r3, s14	@ int
 449 0092 99B2     		uxth	r1, r3
 450 0094 FFF7FEFF 		bl	dsy_dac_write
 451 0098 D4EDBF7A 		vldr.32	s15, [r4, #764]
 452 009c 0120     		movs	r0, #1
 453 009e 67EE887A 		vmul.f32	s15, s15, s16
 454 00a2 FCEEE77A 		vcvt.u32.f32	s15, s15
 455 00a6 17EE903A 		vmov	r3, s15	@ int
 456 00aa 99B2     		uxth	r1, r3
 457 00ac FFF7FEFF 		bl	dsy_dac_write
 458 00b0 DEE7     		b	.L49
 459              	.L52:
 460 00b2 00BF     		.align	2
 461              	.L51:
 462 00b4 00000000 		.word	.LANCHOR0
 463 00b8 00000000 		.word	.LANCHOR2
 464 00bc 0000C842 		.word	1120403456
 465 00c0 00000000 		.word	_ZL8callbackPfS_j
 466 00c4 00000000 		.word	.LANCHOR1
 467 00c8 00F07F45 		.word	1166012416
ARM GAS  /var/folders/45/xsb7v22s5xd97d7k7sy8bf_00000gn/T//ccq7JHcw.s 			page 9


 469              		.section	.text.startup._GLOBAL__sub_I_hw,"ax",%progbits
 470              		.align	1
 471              		.p2align 2,,3
 472              		.syntax unified
 473              		.thumb
 474              		.thumb_func
 475              		.fpu fpv5-d16
 477              	_GLOBAL__sub_I_hw:
 478              		@ args = 0, pretend = 0, frame = 0
 479              		@ frame_needed = 0, uses_anonymous_args = 0
 480 0000 38B5     		push	{r3, r4, r5, lr}
 481 0002 0B4C     		ldr	r4, .L55
 482 0004 0023     		movs	r3, #0
 483 0006 0B4D     		ldr	r5, .L55+4
 484 0008 4FF40072 		mov	r2, #512
 485 000c 04F17A00 		add	r0, r4, #122
 486 0010 0949     		ldr	r1, .L55+8
 487 0012 6366     		str	r3, [r4, #100]
 488 0014 FFF7FEFF 		bl	memcpy
 489 0018 2A46     		mov	r2, r5
 490 001a 2046     		mov	r0, r4
 491 001c 0749     		ldr	r1, .L55+12
 492 001e FFF7FEFF 		bl	__aeabi_atexit
 493 0022 2A46     		mov	r2, r5
 494 0024 0649     		ldr	r1, .L55+16
 495 0026 0748     		ldr	r0, .L55+20
 496 0028 BDE83840 		pop	{r3, r4, r5, lr}
 497 002c FFF7FEBF 		b	__aeabi_atexit
 498              	.L56:
 499              		.align	2
 500              	.L55:
 501 0030 00000000 		.word	.LANCHOR0
 502 0034 00000000 		.word	__dso_handle
 503 0038 54000000 		.word	.LANCHOR3+84
 504 003c 00000000 		.word	_ZN5daisy10DaisyFieldD1Ev
 505 0040 00000000 		.word	_ZN7daisysp10OscillatorD1Ev
 506 0044 00000000 		.word	.LANCHOR2
 508              		.section	.init_array,"aw",%init_array
 509              		.align	2
 510 0000 00000000 		.word	_GLOBAL__sub_I_hw(target1)
 511              		.global	kvals
 512              		.global	hw
 513              		.section	.rodata
 514              		.align	2
 515              		.set	.LANCHOR3,. + 0
 516              	.LC0:
 517 0000 10000000 		.word	16
 518 0004 11000000 		.word	17
 519 0008 12000000 		.word	18
 520 000c 13000000 		.word	19
 521 0010 14000000 		.word	20
 522 0014 15000000 		.word	21
 523 0018 16000000 		.word	22
 524 001c 17000000 		.word	23
 525              	.LC1:
 526 0020 0F000000 		.word	15
 527 0024 0E000000 		.word	14
ARM GAS  /var/folders/45/xsb7v22s5xd97d7k7sy8bf_00000gn/T//ccq7JHcw.s 			page 10


 528 0028 0D000000 		.word	13
 529 002c 0C000000 		.word	12
 530 0030 0B000000 		.word	11
 531 0034 0A000000 		.word	10
 532 0038 09000000 		.word	9
 533 003c 08000000 		.word	8
 534 0040 01000000 		.word	1
 535 0044 02000000 		.word	2
 536 0048 04000000 		.word	4
 537 004c 05000000 		.word	5
 538 0050 06000000 		.word	6
 539              	.LC2:
 540 0054 0000     		.short	0
 541 0056 0100     		.short	1
 542 0058 0100     		.short	1
 543 005a 0100     		.short	1
 544 005c 0100     		.short	1
 545 005e 0100     		.short	1
 546 0060 0100     		.short	1
 547 0062 0100     		.short	1
 548 0064 0100     		.short	1
 549 0066 0100     		.short	1
 550 0068 0100     		.short	1
 551 006a 0100     		.short	1
 552 006c 0200     		.short	2
 553 006e 0200     		.short	2
 554 0070 0200     		.short	2
 555 0072 0200     		.short	2
 556 0074 0200     		.short	2
 557 0076 0200     		.short	2
 558 0078 0200     		.short	2
 559 007a 0300     		.short	3
 560 007c 0300     		.short	3
 561 007e 0400     		.short	4
 562 0080 0400     		.short	4
 563 0082 0500     		.short	5
 564 0084 0500     		.short	5
 565 0086 0600     		.short	6
 566 0088 0700     		.short	7
 567 008a 0800     		.short	8
 568 008c 0800     		.short	8
 569 008e 0900     		.short	9
 570 0090 0A00     		.short	10
 571 0092 0B00     		.short	11
 572 0094 0C00     		.short	12
 573 0096 0D00     		.short	13
 574 0098 0F00     		.short	15
 575 009a 1000     		.short	16
 576 009c 1100     		.short	17
 577 009e 1200     		.short	18
 578 00a0 1400     		.short	20
 579 00a2 1500     		.short	21
 580 00a4 1700     		.short	23
 581 00a6 1900     		.short	25
 582 00a8 1A00     		.short	26
 583 00aa 1C00     		.short	28
 584 00ac 1E00     		.short	30
ARM GAS  /var/folders/45/xsb7v22s5xd97d7k7sy8bf_00000gn/T//ccq7JHcw.s 			page 11


 585 00ae 2000     		.short	32
 586 00b0 2200     		.short	34
 587 00b2 2400     		.short	36
 588 00b4 2600     		.short	38
 589 00b6 2800     		.short	40
 590 00b8 2B00     		.short	43
 591 00ba 2D00     		.short	45
 592 00bc 3000     		.short	48
 593 00be 3200     		.short	50
 594 00c0 3500     		.short	53
 595 00c2 3800     		.short	56
 596 00c4 3B00     		.short	59
 597 00c6 3E00     		.short	62
 598 00c8 4100     		.short	65
 599 00ca 4400     		.short	68
 600 00cc 4700     		.short	71
 601 00ce 4B00     		.short	75
 602 00d0 4E00     		.short	78
 603 00d2 5200     		.short	82
 604 00d4 5500     		.short	85
 605 00d6 5900     		.short	89
 606 00d8 5D00     		.short	93
 607 00da 6100     		.short	97
 608 00dc 6500     		.short	101
 609 00de 6900     		.short	105
 610 00e0 6E00     		.short	110
 611 00e2 7200     		.short	114
 612 00e4 7700     		.short	119
 613 00e6 7B00     		.short	123
 614 00e8 8000     		.short	128
 615 00ea 8500     		.short	133
 616 00ec 8A00     		.short	138
 617 00ee 8F00     		.short	143
 618 00f0 9500     		.short	149
 619 00f2 9A00     		.short	154
 620 00f4 9F00     		.short	159
 621 00f6 A500     		.short	165
 622 00f8 AB00     		.short	171
 623 00fa B100     		.short	177
 624 00fc B700     		.short	183
 625 00fe BD00     		.short	189
 626 0100 C300     		.short	195
 627 0102 CA00     		.short	202
 628 0104 D000     		.short	208
 629 0106 D700     		.short	215
 630 0108 DE00     		.short	222
 631 010a E500     		.short	229
 632 010c EC00     		.short	236
 633 010e F300     		.short	243
 634 0110 FA00     		.short	250
 635 0112 0201     		.short	258
 636 0114 0A01     		.short	266
 637 0116 1101     		.short	273
 638 0118 1901     		.short	281
 639 011a 2201     		.short	290
 640 011c 2A01     		.short	298
 641 011e 3201     		.short	306
ARM GAS  /var/folders/45/xsb7v22s5xd97d7k7sy8bf_00000gn/T//ccq7JHcw.s 			page 12


 642 0120 3B01     		.short	315
 643 0122 4401     		.short	324
 644 0124 4C01     		.short	332
 645 0126 5501     		.short	341
 646 0128 5F01     		.short	351
 647 012a 6801     		.short	360
 648 012c 7101     		.short	369
 649 012e 7B01     		.short	379
 650 0130 8501     		.short	389
 651 0132 8F01     		.short	399
 652 0134 9901     		.short	409
 653 0136 A301     		.short	419
 654 0138 AE01     		.short	430
 655 013a B801     		.short	440
 656 013c C301     		.short	451
 657 013e CE01     		.short	462
 658 0140 D901     		.short	473
 659 0142 E501     		.short	485
 660 0144 F001     		.short	496
 661 0146 FC01     		.short	508
 662 0148 0802     		.short	520
 663 014a 1402     		.short	532
 664 014c 2002     		.short	544
 665 014e 2C02     		.short	556
 666 0150 3902     		.short	569
 667 0152 4602     		.short	582
 668 0154 5202     		.short	594
 669 0156 6002     		.short	608
 670 0158 6D02     		.short	621
 671 015a 7A02     		.short	634
 672 015c 8802     		.short	648
 673 015e 9602     		.short	662
 674 0160 A402     		.short	676
 675 0162 B202     		.short	690
 676 0164 C002     		.short	704
 677 0166 CF02     		.short	719
 678 0168 DE02     		.short	734
 679 016a ED02     		.short	749
 680 016c FC02     		.short	764
 681 016e 0B03     		.short	779
 682 0170 1B03     		.short	795
 683 0172 2B03     		.short	811
 684 0174 3B03     		.short	827
 685 0176 4B03     		.short	843
 686 0178 5B03     		.short	859
 687 017a 6C03     		.short	876
 688 017c 7D03     		.short	893
 689 017e 8E03     		.short	910
 690 0180 9F03     		.short	927
 691 0182 B003     		.short	944
 692 0184 C203     		.short	962
 693 0186 D403     		.short	980
 694 0188 E603     		.short	998
 695 018a F803     		.short	1016
 696 018c 0A04     		.short	1034
 697 018e 1D04     		.short	1053
 698 0190 3004     		.short	1072
ARM GAS  /var/folders/45/xsb7v22s5xd97d7k7sy8bf_00000gn/T//ccq7JHcw.s 			page 13


 699 0192 4304     		.short	1091
 700 0194 5604     		.short	1110
 701 0196 6A04     		.short	1130
 702 0198 7E04     		.short	1150
 703 019a 9204     		.short	1170
 704 019c A604     		.short	1190
 705 019e BA04     		.short	1210
 706 01a0 CF04     		.short	1231
 707 01a2 E404     		.short	1252
 708 01a4 F904     		.short	1273
 709 01a6 0E05     		.short	1294
 710 01a8 2405     		.short	1316
 711 01aa 3A05     		.short	1338
 712 01ac 5005     		.short	1360
 713 01ae 6605     		.short	1382
 714 01b0 7C05     		.short	1404
 715 01b2 9305     		.short	1427
 716 01b4 AA05     		.short	1450
 717 01b6 C105     		.short	1473
 718 01b8 D905     		.short	1497
 719 01ba F005     		.short	1520
 720 01bc 0806     		.short	1544
 721 01be 2006     		.short	1568
 722 01c0 3906     		.short	1593
 723 01c2 5106     		.short	1617
 724 01c4 6A06     		.short	1642
 725 01c6 8306     		.short	1667
 726 01c8 9D06     		.short	1693
 727 01ca B606     		.short	1718
 728 01cc D006     		.short	1744
 729 01ce EA06     		.short	1770
 730 01d0 0507     		.short	1797
 731 01d2 1F07     		.short	1823
 732 01d4 3A07     		.short	1850
 733 01d6 5507     		.short	1877
 734 01d8 7107     		.short	1905
 735 01da 8C07     		.short	1932
 736 01dc A807     		.short	1960
 737 01de C407     		.short	1988
 738 01e0 E107     		.short	2017
 739 01e2 FD07     		.short	2045
 740 01e4 1A08     		.short	2074
 741 01e6 3708     		.short	2103
 742 01e8 5508     		.short	2133
 743 01ea 7208     		.short	2162
 744 01ec 9008     		.short	2192
 745 01ee AF08     		.short	2223
 746 01f0 CD08     		.short	2253
 747 01f2 EC08     		.short	2284
 748 01f4 0B09     		.short	2315
 749 01f6 2A09     		.short	2346
 750 01f8 4A09     		.short	2378
 751 01fa 6A09     		.short	2410
 752 01fc 8A09     		.short	2442
 753 01fe AA09     		.short	2474
 754 0200 CB09     		.short	2507
 755 0202 EC09     		.short	2540
ARM GAS  /var/folders/45/xsb7v22s5xd97d7k7sy8bf_00000gn/T//ccq7JHcw.s 			page 14


 756 0204 0D0A     		.short	2573
 757 0206 2E0A     		.short	2606
 758 0208 500A     		.short	2640
 759 020a 720A     		.short	2674
 760 020c 940A     		.short	2708
 761 020e B70A     		.short	2743
 762 0210 DA0A     		.short	2778
 763 0212 FD0A     		.short	2813
 764 0214 210B     		.short	2849
 765 0216 440B     		.short	2884
 766 0218 680B     		.short	2920
 767 021a 8D0B     		.short	2957
 768 021c B10B     		.short	2993
 769 021e D60B     		.short	3030
 770 0220 FB0B     		.short	3067
 771 0222 210C     		.short	3105
 772 0224 470C     		.short	3143
 773 0226 6D0C     		.short	3181
 774 0228 930C     		.short	3219
 775 022a BA0C     		.short	3258
 776 022c E10C     		.short	3297
 777 022e 080D     		.short	3336
 778 0230 300D     		.short	3376
 779 0232 580D     		.short	3416
 780 0234 800D     		.short	3456
 781 0236 A80D     		.short	3496
 782 0238 D10D     		.short	3537
 783 023a FA0D     		.short	3578
 784 023c 230E     		.short	3619
 785 023e 4D0E     		.short	3661
 786 0240 770E     		.short	3703
 787 0242 A10E     		.short	3745
 788 0244 CC0E     		.short	3788
 789 0246 F70E     		.short	3831
 790 0248 220F     		.short	3874
 791 024a 4E0F     		.short	3918
 792 024c 7A0F     		.short	3962
 793 024e A60F     		.short	4006
 794 0250 D20F     		.short	4050
 795 0252 FF0F     		.short	4095
 796              		.section	.bss._ZL3osc,"aw",%nobits
 797              		.align	2
 798              		.set	.LANCHOR2,. + 0
 801              	_ZL3osc:
 802 0000 00000000 		.space	36
 802      00000000 
 802      00000000 
 802      00000000 
 802      00000000 
 803              		.section	.bss.hw,"aw",%nobits
 804              		.align	2
 805              		.set	.LANCHOR0,. + 0
 808              	hw:
 809 0000 00000000 		.space	1084
 809      00000000 
 809      00000000 
 809      00000000 
ARM GAS  /var/folders/45/xsb7v22s5xd97d7k7sy8bf_00000gn/T//ccq7JHcw.s 			page 15


 809      00000000 
 810              		.section	.bss.kvals,"aw",%nobits
 811              		.align	2
 812              		.set	.LANCHOR1,. + 0
 815              	kvals:
 816 0000 00000000 		.space	32
 816      00000000 
 816      00000000 
 816      00000000 
 816      00000000 
 817              		.hidden	__dso_handle
 818              		.ident	"GCC: (GNU Tools for Arm Embedded Processors 9-2019-q4-major) 9.2.1 20191025 (release) [ARM
ARM GAS  /var/folders/45/xsb7v22s5xd97d7k7sy8bf_00000gn/T//ccq7JHcw.s 			page 16


DEFINED SYMBOLS
                            *ABS*:0000000000000000 MyOscillator.cpp
/var/folders/45/xsb7v22s5xd97d7k7sy8bf_00000gn/T//ccq7JHcw.s:15     .text._ZN5daisy10DaisyFieldD2Ev:0000000000000000 $t
/var/folders/45/xsb7v22s5xd97d7k7sy8bf_00000gn/T//ccq7JHcw.s:24     .text._ZN5daisy10DaisyFieldD2Ev:0000000000000000 _ZN5daisy10DaisyFieldD2Ev
/var/folders/45/xsb7v22s5xd97d7k7sy8bf_00000gn/T//ccq7JHcw.s:24     .text._ZN5daisy10DaisyFieldD2Ev:0000000000000000 _ZN5daisy10DaisyFieldD1Ev
/var/folders/45/xsb7v22s5xd97d7k7sy8bf_00000gn/T//ccq7JHcw.s:33     .text._ZN7daisysp10OscillatorD2Ev:0000000000000000 $t
/var/folders/45/xsb7v22s5xd97d7k7sy8bf_00000gn/T//ccq7JHcw.s:41     .text._ZN7daisysp10OscillatorD2Ev:0000000000000000 _ZN7daisysp10OscillatorD2Ev
/var/folders/45/xsb7v22s5xd97d7k7sy8bf_00000gn/T//ccq7JHcw.s:41     .text._ZN7daisysp10OscillatorD2Ev:0000000000000000 _ZN7daisysp10OscillatorD1Ev
/var/folders/45/xsb7v22s5xd97d7k7sy8bf_00000gn/T//ccq7JHcw.s:50     .text._ZN5daisy16LedDriverPca9685ILi2ELb1EE14TxCpltCallbackEPvNS_9I2CHandle6ResultE:0000000000000000 $t
/var/folders/45/xsb7v22s5xd97d7k7sy8bf_00000gn/T//ccq7JHcw.s:58     .text._ZN5daisy16LedDriverPca9685ILi2ELb1EE14TxCpltCallbackEPvNS_9I2CHandle6ResultE:0000000000000000 _ZN5daisy16LedDriverPca9685ILi2ELb1EE14TxCpltCallbackEPvNS_9I2CHandle6ResultE
/var/folders/45/xsb7v22s5xd97d7k7sy8bf_00000gn/T//ccq7JHcw.s:101    .text._ZN5daisy16LedDriverPca9685ILi2ELb1EE14TxCpltCallbackEPvNS_9I2CHandle6ResultE:0000000000000050 $d
/var/folders/45/xsb7v22s5xd97d7k7sy8bf_00000gn/T//ccq7JHcw.s:104    .text._ZL8callbackPfS_j:0000000000000000 $t
/var/folders/45/xsb7v22s5xd97d7k7sy8bf_00000gn/T//ccq7JHcw.s:111    .text._ZL8callbackPfS_j:0000000000000000 _ZL8callbackPfS_j
/var/folders/45/xsb7v22s5xd97d7k7sy8bf_00000gn/T//ccq7JHcw.s:220    .text._ZL8callbackPfS_j:0000000000000128 $d
/var/folders/45/xsb7v22s5xd97d7k7sy8bf_00000gn/T//ccq7JHcw.s:242    .text._Z10UpdateLedsPf:0000000000000000 $t
/var/folders/45/xsb7v22s5xd97d7k7sy8bf_00000gn/T//ccq7JHcw.s:250    .text._Z10UpdateLedsPf:0000000000000000 _Z10UpdateLedsPf
/var/folders/45/xsb7v22s5xd97d7k7sy8bf_00000gn/T//ccq7JHcw.s:385    .text._Z10UpdateLedsPf:0000000000000174 $d
/var/folders/45/xsb7v22s5xd97d7k7sy8bf_00000gn/T//ccq7JHcw.s:392    .text.startup.main:0000000000000000 $t
/var/folders/45/xsb7v22s5xd97d7k7sy8bf_00000gn/T//ccq7JHcw.s:400    .text.startup.main:0000000000000000 main
/var/folders/45/xsb7v22s5xd97d7k7sy8bf_00000gn/T//ccq7JHcw.s:462    .text.startup.main:00000000000000b4 $d
/var/folders/45/xsb7v22s5xd97d7k7sy8bf_00000gn/T//ccq7JHcw.s:470    .text.startup._GLOBAL__sub_I_hw:0000000000000000 $t
/var/folders/45/xsb7v22s5xd97d7k7sy8bf_00000gn/T//ccq7JHcw.s:477    .text.startup._GLOBAL__sub_I_hw:0000000000000000 _GLOBAL__sub_I_hw
/var/folders/45/xsb7v22s5xd97d7k7sy8bf_00000gn/T//ccq7JHcw.s:501    .text.startup._GLOBAL__sub_I_hw:0000000000000030 $d
/var/folders/45/xsb7v22s5xd97d7k7sy8bf_00000gn/T//ccq7JHcw.s:509    .init_array:0000000000000000 $d
/var/folders/45/xsb7v22s5xd97d7k7sy8bf_00000gn/T//ccq7JHcw.s:815    .bss.kvals:0000000000000000 kvals
/var/folders/45/xsb7v22s5xd97d7k7sy8bf_00000gn/T//ccq7JHcw.s:808    .bss.hw:0000000000000000 hw
/var/folders/45/xsb7v22s5xd97d7k7sy8bf_00000gn/T//ccq7JHcw.s:514    .rodata:0000000000000000 $d
/var/folders/45/xsb7v22s5xd97d7k7sy8bf_00000gn/T//ccq7JHcw.s:797    .bss._ZL3osc:0000000000000000 $d
/var/folders/45/xsb7v22s5xd97d7k7sy8bf_00000gn/T//ccq7JHcw.s:801    .bss._ZL3osc:0000000000000000 _ZL3osc
/var/folders/45/xsb7v22s5xd97d7k7sy8bf_00000gn/T//ccq7JHcw.s:804    .bss.hw:0000000000000000 $d
/var/folders/45/xsb7v22s5xd97d7k7sy8bf_00000gn/T//ccq7JHcw.s:811    .bss.kvals:0000000000000000 $d
                           .group:0000000000000000 _ZN5daisy10DaisyFieldD5Ev
                           .group:0000000000000000 _ZN7daisysp10OscillatorD5Ev

UNDEFINED SYMBOLS
_ZN5daisy9I2CHandle11TransmitDmaEtPhtPFvPvNS0_6ResultEES2_
_ZNK5daisy9I2CHandle9GetConfigEv
_ZN5daisy9I2CHandle4InitERKNS0_6ConfigE
_ZN5daisy13AnalogControl7ProcessEv
_ZN5daisy6Switch8DebounceEv
dsy_sr_4021_update
dsy_sr_4021_state
_ZN5daisy6GateIn4TrigEv
_ZN7daisysp10Oscillator7ProcessEv
_ZN7daisysp10Oscillator12CalcPhaseIncEf
_ZN5daisy10DaisyField4InitEv
_ZN5daisy10DaisyField10StartAudioEPFvPfS1_jE
_ZN5daisy9AdcHandle5StartEv
dsy_system_delay
dsy_dac_write
memcpy
__aeabi_atexit
__dso_handle
