ARM GAS  /var/folders/45/xsb7v22s5xd97d7k7sy8bf_00000gn/T//ccQ3A5jV.s 			page 1


   1              		.cpu cortex-m7
   2              		.eabi_attribute 28, 1
   3              		.eabi_attribute 20, 1
   4              		.eabi_attribute 21, 1
   5              		.eabi_attribute 23, 3
   6              		.eabi_attribute 24, 1
   7              		.eabi_attribute 25, 1
   8              		.eabi_attribute 26, 1
   9              		.eabi_attribute 30, 2
  10              		.eabi_attribute 34, 1
  11              		.eabi_attribute 18, 4
  12              		.file	"MyOscillator.cpp"
  13              		.text
  14              		.section	.text._ZN5daisy10DaisyFieldD2Ev,"axG",%progbits,_ZN5daisy10DaisyFieldD5Ev,comdat
  15              		.align	1
  16              		.p2align 2,,3
  17              		.weak	_ZN5daisy10DaisyFieldD2Ev
  18              		.arch armv7e-m
  19              		.syntax unified
  20              		.thumb
  21              		.thumb_func
  22              		.fpu fpv5-d16
  24              	_ZN5daisy10DaisyFieldD2Ev:
  25              		@ args = 0, pretend = 0, frame = 0
  26              		@ frame_needed = 0, uses_anonymous_args = 0
  27              		@ link register save eliminated.
  28 0000 7047     		bx	lr
  30              		.weak	_ZN5daisy10DaisyFieldD1Ev
  31              		.thumb_set _ZN5daisy10DaisyFieldD1Ev,_ZN5daisy10DaisyFieldD2Ev
  32 0002 00BF     		.section	.text._ZN7daisysp10MoogFilterD2Ev,"axG",%progbits,_ZN7daisysp10MoogFilterD5Ev,comdat
  33              		.align	1
  34              		.p2align 2,,3
  35              		.weak	_ZN7daisysp10MoogFilterD2Ev
  36              		.syntax unified
  37              		.thumb
  38              		.thumb_func
  39              		.fpu fpv5-d16
  41              	_ZN7daisysp10MoogFilterD2Ev:
  42              		@ args = 0, pretend = 0, frame = 0
  43              		@ frame_needed = 0, uses_anonymous_args = 0
  44              		@ link register save eliminated.
  45 0000 7047     		bx	lr
  47              		.weak	_ZN7daisysp10MoogFilterD1Ev
  48              		.thumb_set _ZN7daisysp10MoogFilterD1Ev,_ZN7daisysp10MoogFilterD2Ev
  49 0002 00BF     		.section	.text._ZN7daisysp10OscillatorD2Ev,"axG",%progbits,_ZN7daisysp10OscillatorD5Ev,comdat
  50              		.align	1
  51              		.p2align 2,,3
  52              		.weak	_ZN7daisysp10OscillatorD2Ev
  53              		.syntax unified
  54              		.thumb
  55              		.thumb_func
  56              		.fpu fpv5-d16
  58              	_ZN7daisysp10OscillatorD2Ev:
  59              		@ args = 0, pretend = 0, frame = 0
  60              		@ frame_needed = 0, uses_anonymous_args = 0
  61              		@ link register save eliminated.
  62 0000 7047     		bx	lr
ARM GAS  /var/folders/45/xsb7v22s5xd97d7k7sy8bf_00000gn/T//ccQ3A5jV.s 			page 2


  64              		.weak	_ZN7daisysp10OscillatorD1Ev
  65              		.thumb_set _ZN7daisysp10OscillatorD1Ev,_ZN7daisysp10OscillatorD2Ev
  66 0002 00BF     		.section	.text._ZL8callbackPfS_j,"ax",%progbits
  67              		.align	1
  68              		.p2align 2,,3
  69              		.syntax unified
  70              		.thumb
  71              		.thumb_func
  72              		.fpu fpv5-d16
  74              	_ZL8callbackPfS_j:
  75              		@ args = 0, pretend = 0, frame = 0
  76              		@ frame_needed = 0, uses_anonymous_args = 0
  77 0000 2DE9F843 		push	{r3, r4, r5, r6, r7, r8, r9, lr}
  78 0004 424C     		ldr	r4, .L13
  79 0006 0D46     		mov	r5, r1
  80 0008 1646     		mov	r6, r2
  81 000a 04F53570 		add	r0, r4, #724
  82 000e 2DED028B 		vpush.64	{d8}
  83 0012 FFF7FEFF 		bl	_ZN5daisy13AnalogControl7ProcessEv
  84 0016 04F53C70 		add	r0, r4, #752
  85 001a FFF7FEFF 		bl	_ZN5daisy13AnalogControl7ProcessEv
  86 001e 04F54370 		add	r0, r4, #780
  87 0022 FFF7FEFF 		bl	_ZN5daisy13AnalogControl7ProcessEv
  88 0026 04F54A70 		add	r0, r4, #808
  89 002a FFF7FEFF 		bl	_ZN5daisy13AnalogControl7ProcessEv
  90 002e 04F55170 		add	r0, r4, #836
  91 0032 FFF7FEFF 		bl	_ZN5daisy13AnalogControl7ProcessEv
  92 0036 04F55870 		add	r0, r4, #864
  93 003a FFF7FEFF 		bl	_ZN5daisy13AnalogControl7ProcessEv
  94 003e 04F55F70 		add	r0, r4, #892
  95 0042 FFF7FEFF 		bl	_ZN5daisy13AnalogControl7ProcessEv
  96 0046 04F56670 		add	r0, r4, #920
  97 004a FFF7FEFF 		bl	_ZN5daisy13AnalogControl7ProcessEv
  98 004e 04F56D70 		add	r0, r4, #948
  99 0052 FFF7FEFF 		bl	_ZN5daisy13AnalogControl7ProcessEv
 100 0056 04F57470 		add	r0, r4, #976
 101 005a FFF7FEFF 		bl	_ZN5daisy13AnalogControl7ProcessEv
 102 005e 04F57B70 		add	r0, r4, #1004
 103 0062 FFF7FEFF 		bl	_ZN5daisy13AnalogControl7ProcessEv
 104 0066 04F58160 		add	r0, r4, #1032
 105 006a FFF7FEFF 		bl	_ZN5daisy13AnalogControl7ProcessEv
 106 006e 294B     		ldr	r3, .L13+4
 107 0070 D4F8E012 		ldr	r1, [r4, #736]	@ float
 108 0074 D4F8FC22 		ldr	r2, [r4, #764]	@ float
 109 0078 1960     		str	r1, [r3]	@ float
 110 007a 5A60     		str	r2, [r3, #4]	@ float
 111 007c D4F81813 		ldr	r1, [r4, #792]	@ float
 112 0080 D4F83423 		ldr	r2, [r4, #820]	@ float
 113 0084 9960     		str	r1, [r3, #8]	@ float
 114 0086 DA60     		str	r2, [r3, #12]	@ float
 115 0088 D4F85013 		ldr	r1, [r4, #848]	@ float
 116 008c D4F86C23 		ldr	r2, [r4, #876]	@ float
 117 0090 1961     		str	r1, [r3, #16]	@ float
 118 0092 5A61     		str	r2, [r3, #20]	@ float
 119 0094 D4F88813 		ldr	r1, [r4, #904]	@ float
 120 0098 D4F8A423 		ldr	r2, [r4, #932]	@ float
 121 009c 9961     		str	r1, [r3, #24]	@ float
ARM GAS  /var/folders/45/xsb7v22s5xd97d7k7sy8bf_00000gn/T//ccQ3A5jV.s 			page 3


 122 009e DA61     		str	r2, [r3, #28]	@ float
 123 00a0 96B3     		cbz	r6, .L5
 124 00a2 06F1FF39 		add	r9, r6, #-1
 125 00a6 DFF87480 		ldr	r8, .L13+12
 126 00aa 0026     		movs	r6, #0
 127 00ac 1A4F     		ldr	r7, .L13+8
 128 00ae 29F00109 		bic	r9, r9, #1
 129              	.L7:
 130 00b2 1A48     		ldr	r0, .L13+12
 131 00b4 0835     		adds	r5, r5, #8
 132 00b6 FFF7FEFF 		bl	_ZN7daisysp10Oscillator7ProcessEv
 133 00ba DFED198A 		vldr.32	s17, .L13+16
 134 00be D4EDB87A 		vldr.32	s15, [r4, #736]
 135 00c2 B0EE408A 		vmov.f32	s16, s0
 136 00c6 1548     		ldr	r0, .L13+12
 137 00c8 27EEA80A 		vmul.f32	s0, s15, s17
 138 00cc 88ED020A 		vstr.32	s0, [r8, #8]
 139 00d0 FFF7FEFF 		bl	_ZN7daisysp10Oscillator12CalcPhaseIncEf
 140 00d4 D4EDBF7A 		vldr.32	s15, [r4, #764]
 141 00d8 B0EE407A 		vmov.f32	s14, s0
 142 00dc D4F81833 		ldr	r3, [r4, #792]	@ float
 143 00e0 B0EE480A 		vmov.f32	s0, s16
 144 00e4 67EEA87A 		vmul.f32	s15, s15, s17
 145 00e8 0B48     		ldr	r0, .L13+8
 146 00ea 88ED067A 		vstr.32	s14, [r8, #24]
 147 00ee BB60     		str	r3, [r7, #8]	@ float
 148 00f0 C7ED017A 		vstr.32	s15, [r7, #4]
 149 00f4 FFF7FEFF 		bl	_ZN7daisysp10MoogFilter7ProcessEf
 150 00f8 4E45     		cmp	r6, r9
 151 00fa 05ED020A 		vstr.32	s0, [r5, #-8]
 152 00fe 05ED010A 		vstr.32	s0, [r5, #-4]
 153 0102 06F10206 		add	r6, r6, #2
 154 0106 D4D1     		bne	.L7
 155              	.L5:
 156 0108 BDEC028B 		vldm	sp!, {d8}
 157 010c BDE8F883 		pop	{r3, r4, r5, r6, r7, r8, r9, pc}
 158              	.L14:
 159              		.align	2
 160              	.L13:
 161 0110 00000000 		.word	.LANCHOR0
 162 0114 00000000 		.word	.LANCHOR1
 163 0118 00000000 		.word	.LANCHOR3
 164 011c 00000000 		.word	.LANCHOR2
 165 0120 00007A44 		.word	1148846080
 167              		.section	.text.startup.main,"ax",%progbits
 168              		.align	1
 169              		.p2align 2,,3
 170              		.global	main
 171              		.syntax unified
 172              		.thumb
 173              		.thumb_func
 174              		.fpu fpv5-d16
 176              	main:
 177              		@ args = 0, pretend = 0, frame = 0
 178              		@ frame_needed = 0, uses_anonymous_args = 0
 179 0000 70B5     		push	{r4, r5, r6, lr}
 180 0002 1F4D     		ldr	r5, .L18
ARM GAS  /var/folders/45/xsb7v22s5xd97d7k7sy8bf_00000gn/T//ccQ3A5jV.s 			page 4


 181 0004 4FF07C56 		mov	r6, #1056964608
 182 0008 1E4C     		ldr	r4, .L18+4
 183 000a 2846     		mov	r0, r5
 184 000c 2DED028B 		vpush.64	{d8}
 185 0010 FFF7FEFF 		bl	_ZN5daisy10DaisyField4InitEv
 186 0014 B7EE007A 		vmov.f32	s14, #1.0e+0
 187 0018 D5ED9F8A 		vldr.32	s17, [r5, #636]
 188 001c 0023     		movs	r3, #0
 189 001e 9FED1A8A 		vldr.32	s16, .L18+8
 190 0022 2046     		mov	r0, r4
 191 0024 C7EE287A 		vdiv.f32	s15, s14, s17
 192 0028 6361     		str	r3, [r4, #20]	@ float
 193 002a C4ED038A 		vstr.32	s17, [r4, #12]
 194 002e 84ED028A 		vstr.32	s16, [r4, #8]
 195 0032 6660     		str	r6, [r4, #4]	@ float
 196 0034 B0EE480A 		vmov.f32	s0, s16
 197 0038 C4ED047A 		vstr.32	s15, [r4, #16]
 198 003c FFF7FEFF 		bl	_ZN7daisysp10Oscillator12CalcPhaseIncEf
 199 0040 F0EE407A 		vmov.f32	s15, s0
 200 0044 0223     		movs	r3, #2
 201 0046 2046     		mov	r0, r4
 202 0048 B0EE480A 		vmov.f32	s0, s16
 203 004c 2370     		strb	r3, [r4]
 204 004e C4ED067A 		vstr.32	s15, [r4, #24]
 205 0052 84ED028A 		vstr.32	s16, [r4, #8]
 206 0056 FFF7FEFF 		bl	_ZN7daisysp10Oscillator12CalcPhaseIncEf
 207 005a F0EE407A 		vmov.f32	s15, s0
 208 005e 0B48     		ldr	r0, .L18+12
 209 0060 B0EE680A 		vmov.f32	s0, s17
 210 0064 6660     		str	r6, [r4, #4]	@ float
 211 0066 C4ED067A 		vstr.32	s15, [r4, #24]
 212 006a FFF7FEFF 		bl	_ZN7daisysp10MoogFilter4InitEf
 213 006e 2846     		mov	r0, r5
 214 0070 0749     		ldr	r1, .L18+16
 215 0072 FFF7FEFF 		bl	_ZN5daisy10DaisyField10StartAudioEPFvPfS1_jE
 216 0076 05F14000 		add	r0, r5, #64
 217 007a FFF7FEFF 		bl	_ZN5daisy9AdcHandle5StartEv
 218              	.L16:
 219 007e FEE7     		b	.L16
 220              	.L19:
 221              		.align	2
 222              	.L18:
 223 0080 00000000 		.word	.LANCHOR0
 224 0084 00000000 		.word	.LANCHOR2
 225 0088 0000C842 		.word	1120403456
 226 008c 00000000 		.word	.LANCHOR3
 227 0090 00000000 		.word	_ZL8callbackPfS_j
 229              		.section	.text.startup._GLOBAL__sub_I_hw,"ax",%progbits
 230              		.align	1
 231              		.p2align 2,,3
 232              		.syntax unified
 233              		.thumb
 234              		.thumb_func
 235              		.fpu fpv5-d16
 237              	_GLOBAL__sub_I_hw:
 238              		@ args = 0, pretend = 0, frame = 0
 239              		@ frame_needed = 0, uses_anonymous_args = 0
ARM GAS  /var/folders/45/xsb7v22s5xd97d7k7sy8bf_00000gn/T//ccQ3A5jV.s 			page 5


 240 0000 38B5     		push	{r3, r4, r5, lr}
 241 0002 0E4D     		ldr	r5, .L22
 242 0004 0023     		movs	r3, #0
 243 0006 0E4C     		ldr	r4, .L22+4
 244 0008 4FF40072 		mov	r2, #512
 245 000c 05F17A00 		add	r0, r5, #122
 246 0010 0C49     		ldr	r1, .L22+8
 247 0012 6B66     		str	r3, [r5, #100]
 248 0014 FFF7FEFF 		bl	memcpy
 249 0018 2246     		mov	r2, r4
 250 001a 2846     		mov	r0, r5
 251 001c 0A49     		ldr	r1, .L22+12
 252 001e FFF7FEFF 		bl	__aeabi_atexit
 253 0022 2246     		mov	r2, r4
 254 0024 0949     		ldr	r1, .L22+16
 255 0026 0A48     		ldr	r0, .L22+20
 256 0028 FFF7FEFF 		bl	__aeabi_atexit
 257 002c 2246     		mov	r2, r4
 258 002e 0949     		ldr	r1, .L22+24
 259 0030 0948     		ldr	r0, .L22+28
 260 0032 BDE83840 		pop	{r3, r4, r5, lr}
 261 0036 FFF7FEBF 		b	__aeabi_atexit
 262              	.L23:
 263 003a 00BF     		.align	2
 264              	.L22:
 265 003c 00000000 		.word	.LANCHOR0
 266 0040 00000000 		.word	__dso_handle
 267 0044 00000000 		.word	.LANCHOR4
 268 0048 00000000 		.word	_ZN5daisy10DaisyFieldD1Ev
 269 004c 00000000 		.word	_ZN7daisysp10OscillatorD1Ev
 270 0050 00000000 		.word	.LANCHOR2
 271 0054 00000000 		.word	_ZN7daisysp10MoogFilterD1Ev
 272 0058 00000000 		.word	.LANCHOR3
 274              		.section	.init_array,"aw",%init_array
 275              		.align	2
 276 0000 00000000 		.word	_GLOBAL__sub_I_hw(target1)
 277              		.global	kvals
 278              		.global	hw
 279              		.section	.rodata
 280              		.align	2
 281              		.set	.LANCHOR4,. + 0
 282              	.LC0:
 283 0000 0000     		.short	0
 284 0002 0100     		.short	1
 285 0004 0100     		.short	1
 286 0006 0100     		.short	1
 287 0008 0100     		.short	1
 288 000a 0100     		.short	1
 289 000c 0100     		.short	1
 290 000e 0100     		.short	1
 291 0010 0100     		.short	1
 292 0012 0100     		.short	1
 293 0014 0100     		.short	1
 294 0016 0100     		.short	1
 295 0018 0200     		.short	2
 296 001a 0200     		.short	2
 297 001c 0200     		.short	2
ARM GAS  /var/folders/45/xsb7v22s5xd97d7k7sy8bf_00000gn/T//ccQ3A5jV.s 			page 6


 298 001e 0200     		.short	2
 299 0020 0200     		.short	2
 300 0022 0200     		.short	2
 301 0024 0200     		.short	2
 302 0026 0300     		.short	3
 303 0028 0300     		.short	3
 304 002a 0400     		.short	4
 305 002c 0400     		.short	4
 306 002e 0500     		.short	5
 307 0030 0500     		.short	5
 308 0032 0600     		.short	6
 309 0034 0700     		.short	7
 310 0036 0800     		.short	8
 311 0038 0800     		.short	8
 312 003a 0900     		.short	9
 313 003c 0A00     		.short	10
 314 003e 0B00     		.short	11
 315 0040 0C00     		.short	12
 316 0042 0D00     		.short	13
 317 0044 0F00     		.short	15
 318 0046 1000     		.short	16
 319 0048 1100     		.short	17
 320 004a 1200     		.short	18
 321 004c 1400     		.short	20
 322 004e 1500     		.short	21
 323 0050 1700     		.short	23
 324 0052 1900     		.short	25
 325 0054 1A00     		.short	26
 326 0056 1C00     		.short	28
 327 0058 1E00     		.short	30
 328 005a 2000     		.short	32
 329 005c 2200     		.short	34
 330 005e 2400     		.short	36
 331 0060 2600     		.short	38
 332 0062 2800     		.short	40
 333 0064 2B00     		.short	43
 334 0066 2D00     		.short	45
 335 0068 3000     		.short	48
 336 006a 3200     		.short	50
 337 006c 3500     		.short	53
 338 006e 3800     		.short	56
 339 0070 3B00     		.short	59
 340 0072 3E00     		.short	62
 341 0074 4100     		.short	65
 342 0076 4400     		.short	68
 343 0078 4700     		.short	71
 344 007a 4B00     		.short	75
 345 007c 4E00     		.short	78
 346 007e 5200     		.short	82
 347 0080 5500     		.short	85
 348 0082 5900     		.short	89
 349 0084 5D00     		.short	93
 350 0086 6100     		.short	97
 351 0088 6500     		.short	101
 352 008a 6900     		.short	105
 353 008c 6E00     		.short	110
 354 008e 7200     		.short	114
ARM GAS  /var/folders/45/xsb7v22s5xd97d7k7sy8bf_00000gn/T//ccQ3A5jV.s 			page 7


 355 0090 7700     		.short	119
 356 0092 7B00     		.short	123
 357 0094 8000     		.short	128
 358 0096 8500     		.short	133
 359 0098 8A00     		.short	138
 360 009a 8F00     		.short	143
 361 009c 9500     		.short	149
 362 009e 9A00     		.short	154
 363 00a0 9F00     		.short	159
 364 00a2 A500     		.short	165
 365 00a4 AB00     		.short	171
 366 00a6 B100     		.short	177
 367 00a8 B700     		.short	183
 368 00aa BD00     		.short	189
 369 00ac C300     		.short	195
 370 00ae CA00     		.short	202
 371 00b0 D000     		.short	208
 372 00b2 D700     		.short	215
 373 00b4 DE00     		.short	222
 374 00b6 E500     		.short	229
 375 00b8 EC00     		.short	236
 376 00ba F300     		.short	243
 377 00bc FA00     		.short	250
 378 00be 0201     		.short	258
 379 00c0 0A01     		.short	266
 380 00c2 1101     		.short	273
 381 00c4 1901     		.short	281
 382 00c6 2201     		.short	290
 383 00c8 2A01     		.short	298
 384 00ca 3201     		.short	306
 385 00cc 3B01     		.short	315
 386 00ce 4401     		.short	324
 387 00d0 4C01     		.short	332
 388 00d2 5501     		.short	341
 389 00d4 5F01     		.short	351
 390 00d6 6801     		.short	360
 391 00d8 7101     		.short	369
 392 00da 7B01     		.short	379
 393 00dc 8501     		.short	389
 394 00de 8F01     		.short	399
 395 00e0 9901     		.short	409
 396 00e2 A301     		.short	419
 397 00e4 AE01     		.short	430
 398 00e6 B801     		.short	440
 399 00e8 C301     		.short	451
 400 00ea CE01     		.short	462
 401 00ec D901     		.short	473
 402 00ee E501     		.short	485
 403 00f0 F001     		.short	496
 404 00f2 FC01     		.short	508
 405 00f4 0802     		.short	520
 406 00f6 1402     		.short	532
 407 00f8 2002     		.short	544
 408 00fa 2C02     		.short	556
 409 00fc 3902     		.short	569
 410 00fe 4602     		.short	582
 411 0100 5202     		.short	594
ARM GAS  /var/folders/45/xsb7v22s5xd97d7k7sy8bf_00000gn/T//ccQ3A5jV.s 			page 8


 412 0102 6002     		.short	608
 413 0104 6D02     		.short	621
 414 0106 7A02     		.short	634
 415 0108 8802     		.short	648
 416 010a 9602     		.short	662
 417 010c A402     		.short	676
 418 010e B202     		.short	690
 419 0110 C002     		.short	704
 420 0112 CF02     		.short	719
 421 0114 DE02     		.short	734
 422 0116 ED02     		.short	749
 423 0118 FC02     		.short	764
 424 011a 0B03     		.short	779
 425 011c 1B03     		.short	795
 426 011e 2B03     		.short	811
 427 0120 3B03     		.short	827
 428 0122 4B03     		.short	843
 429 0124 5B03     		.short	859
 430 0126 6C03     		.short	876
 431 0128 7D03     		.short	893
 432 012a 8E03     		.short	910
 433 012c 9F03     		.short	927
 434 012e B003     		.short	944
 435 0130 C203     		.short	962
 436 0132 D403     		.short	980
 437 0134 E603     		.short	998
 438 0136 F803     		.short	1016
 439 0138 0A04     		.short	1034
 440 013a 1D04     		.short	1053
 441 013c 3004     		.short	1072
 442 013e 4304     		.short	1091
 443 0140 5604     		.short	1110
 444 0142 6A04     		.short	1130
 445 0144 7E04     		.short	1150
 446 0146 9204     		.short	1170
 447 0148 A604     		.short	1190
 448 014a BA04     		.short	1210
 449 014c CF04     		.short	1231
 450 014e E404     		.short	1252
 451 0150 F904     		.short	1273
 452 0152 0E05     		.short	1294
 453 0154 2405     		.short	1316
 454 0156 3A05     		.short	1338
 455 0158 5005     		.short	1360
 456 015a 6605     		.short	1382
 457 015c 7C05     		.short	1404
 458 015e 9305     		.short	1427
 459 0160 AA05     		.short	1450
 460 0162 C105     		.short	1473
 461 0164 D905     		.short	1497
 462 0166 F005     		.short	1520
 463 0168 0806     		.short	1544
 464 016a 2006     		.short	1568
 465 016c 3906     		.short	1593
 466 016e 5106     		.short	1617
 467 0170 6A06     		.short	1642
 468 0172 8306     		.short	1667
ARM GAS  /var/folders/45/xsb7v22s5xd97d7k7sy8bf_00000gn/T//ccQ3A5jV.s 			page 9


 469 0174 9D06     		.short	1693
 470 0176 B606     		.short	1718
 471 0178 D006     		.short	1744
 472 017a EA06     		.short	1770
 473 017c 0507     		.short	1797
 474 017e 1F07     		.short	1823
 475 0180 3A07     		.short	1850
 476 0182 5507     		.short	1877
 477 0184 7107     		.short	1905
 478 0186 8C07     		.short	1932
 479 0188 A807     		.short	1960
 480 018a C407     		.short	1988
 481 018c E107     		.short	2017
 482 018e FD07     		.short	2045
 483 0190 1A08     		.short	2074
 484 0192 3708     		.short	2103
 485 0194 5508     		.short	2133
 486 0196 7208     		.short	2162
 487 0198 9008     		.short	2192
 488 019a AF08     		.short	2223
 489 019c CD08     		.short	2253
 490 019e EC08     		.short	2284
 491 01a0 0B09     		.short	2315
 492 01a2 2A09     		.short	2346
 493 01a4 4A09     		.short	2378
 494 01a6 6A09     		.short	2410
 495 01a8 8A09     		.short	2442
 496 01aa AA09     		.short	2474
 497 01ac CB09     		.short	2507
 498 01ae EC09     		.short	2540
 499 01b0 0D0A     		.short	2573
 500 01b2 2E0A     		.short	2606
 501 01b4 500A     		.short	2640
 502 01b6 720A     		.short	2674
 503 01b8 940A     		.short	2708
 504 01ba B70A     		.short	2743
 505 01bc DA0A     		.short	2778
 506 01be FD0A     		.short	2813
 507 01c0 210B     		.short	2849
 508 01c2 440B     		.short	2884
 509 01c4 680B     		.short	2920
 510 01c6 8D0B     		.short	2957
 511 01c8 B10B     		.short	2993
 512 01ca D60B     		.short	3030
 513 01cc FB0B     		.short	3067
 514 01ce 210C     		.short	3105
 515 01d0 470C     		.short	3143
 516 01d2 6D0C     		.short	3181
 517 01d4 930C     		.short	3219
 518 01d6 BA0C     		.short	3258
 519 01d8 E10C     		.short	3297
 520 01da 080D     		.short	3336
 521 01dc 300D     		.short	3376
 522 01de 580D     		.short	3416
 523 01e0 800D     		.short	3456
 524 01e2 A80D     		.short	3496
 525 01e4 D10D     		.short	3537
ARM GAS  /var/folders/45/xsb7v22s5xd97d7k7sy8bf_00000gn/T//ccQ3A5jV.s 			page 10


 526 01e6 FA0D     		.short	3578
 527 01e8 230E     		.short	3619
 528 01ea 4D0E     		.short	3661
 529 01ec 770E     		.short	3703
 530 01ee A10E     		.short	3745
 531 01f0 CC0E     		.short	3788
 532 01f2 F70E     		.short	3831
 533 01f4 220F     		.short	3874
 534 01f6 4E0F     		.short	3918
 535 01f8 7A0F     		.short	3962
 536 01fa A60F     		.short	4006
 537 01fc D20F     		.short	4050
 538 01fe FF0F     		.short	4095
 539              		.section	.bss._ZL3osc,"aw",%nobits
 540              		.align	2
 541              		.set	.LANCHOR2,. + 0
 544              	_ZL3osc:
 545 0000 00000000 		.space	36
 545      00000000 
 545      00000000 
 545      00000000 
 545      00000000 
 546              		.section	.bss._ZL4filt,"aw",%nobits
 547              		.align	2
 548              		.set	.LANCHOR3,. + 0
 551              	_ZL4filt:
 552 0000 00000000 		.space	64
 552      00000000 
 552      00000000 
 552      00000000 
 552      00000000 
 553              		.section	.bss.hw,"aw",%nobits
 554              		.align	2
 555              		.set	.LANCHOR0,. + 0
 558              	hw:
 559 0000 00000000 		.space	1084
 559      00000000 
 559      00000000 
 559      00000000 
 559      00000000 
 560              		.section	.bss.kvals,"aw",%nobits
 561              		.align	2
 562              		.set	.LANCHOR1,. + 0
 565              	kvals:
 566 0000 00000000 		.space	32
 566      00000000 
 566      00000000 
 566      00000000 
 566      00000000 
 567              		.hidden	__dso_handle
 568              		.ident	"GCC: (GNU Tools for Arm Embedded Processors 9-2019-q4-major) 9.2.1 20191025 (release) [ARM
ARM GAS  /var/folders/45/xsb7v22s5xd97d7k7sy8bf_00000gn/T//ccQ3A5jV.s 			page 11

